; ModuleID = '29/954.c'
source_filename = "29/954.c"
target datalayout = "e-m:e-p270:32:32-p271:32:32-p272:64:64-i64:64-f80:128-n8:16:32:64-S128"
target triple = "x86_64-pc-linux-gnu"

@.str = private unnamed_addr constant [3 x i8] c"%d\00", align 1
@.str.1 = private unnamed_addr constant [4 x i8] c"%lf\00", align 1
@.str.2 = private unnamed_addr constant [7 x i8] c"%.3lf\0A\00", align 1

; Function Attrs: noinline nounwind uwtable
define dso_local double @F(double %0) #0 {
  %2 = alloca double, align 8
  %3 = alloca double, align 8
  %4 = alloca double, align 8
  %5 = alloca double, align 8
  %6 = alloca double, align 8
  %7 = alloca i32, align 4
  store double %0, double* %2, align 8
  store double 0.000000e+00, double* %3, align 8
  store double 2.000000e+00, double* %4, align 8
  store double 1.000000e+00, double* %5, align 8
  store i32 0, i32* %7, align 4
  br label %8

8:                                                ; preds = %24, %1
  %9 = load i32, i32* %7, align 4
  %10 = sitofp i32 %9 to double
  %11 = load double, double* %2, align 8
  %12 = fcmp olt double %10, %11
  br i1 %12, label %13, label %27

13:                                               ; preds = %8
  %14 = load double, double* %4, align 8
  %15 = load double, double* %5, align 8
  %16 = fdiv double %14, %15
  %17 = load double, double* %3, align 8
  %18 = fadd double %17, %16
  store double %18, double* %3, align 8
  %19 = load double, double* %4, align 8
  store double %19, double* %6, align 8
  %20 = load double, double* %4, align 8
  %21 = load double, double* %5, align 8
  %22 = fadd double %20, %21
  store double %22, double* %4, align 8
  %23 = load double, double* %6, align 8
  store double %23, double* %5, align 8
  br label %24

24:                                               ; preds = %13
  %25 = load i32, i32* %7, align 4
  %26 = add nsw i32 %25, 1
  store i32 %26, i32* %7, align 4
  br label %8

27:                                               ; preds = %8
  %28 = load double, double* %3, align 8
  ret double %28
}

; Function Attrs: noinline nounwind uwtable
define dso_local i32 @main() #0 {
  %1 = alloca i32, align 4
  %2 = alloca i32, align 4
  %3 = alloca double*, align 8
  %4 = alloca i32, align 4
  store i32 0, i32* %1, align 4
  %5 = call i32 (i8*, ...) @__isoc99_scanf(i8* getelementptr inbounds ([3 x i8], [3 x i8]* @.str, i64 0, i64 0), i32* %2)
  %6 = load i32, i32* %2, align 4
  %7 = sext i32 %6 to i64
  %8 = mul i64 8, %7
  %9 = call noalias i8* @malloc(i64 %8) #3
  %10 = bitcast i8* %9 to double*
  store double* %10, double** %3, align 8
  store i32 0, i32* %4, align 4
  br label %11

11:                                               ; preds = %31, %0
  %12 = load i32, i32* %4, align 4
  %13 = load i32, i32* %2, align 4
  %14 = icmp slt i32 %12, %13
  br i1 %14, label %15, label %34

15:                                               ; preds = %11
  %16 = load double*, double** %3, align 8
  %17 = load i32, i32* %4, align 4
  %18 = sext i32 %17 to i64
  %19 = getelementptr inbounds double, double* %16, i64 %18
  %20 = call i32 (i8*, ...) @__isoc99_scanf(i8* getelementptr inbounds ([4 x i8], [4 x i8]* @.str.1, i64 0, i64 0), double* %19)
  %21 = load double*, double** %3, align 8
  %22 = load i32, i32* %4, align 4
  %23 = sext i32 %22 to i64
  %24 = getelementptr inbounds double, double* %21, i64 %23
  %25 = load double, double* %24, align 8
  %26 = call double @F(double %25)
  %27 = load double*, double** %3, align 8
  %28 = load i32, i32* %4, align 4
  %29 = sext i32 %28 to i64
  %30 = getelementptr inbounds double, double* %27, i64 %29
  store double %26, double* %30, align 8
  br label %31

31:                                               ; preds = %15
  %32 = load i32, i32* %4, align 4
  %33 = add nsw i32 %32, 1
  store i32 %33, i32* %4, align 4
  br label %11

34:                                               ; preds = %11
  store i32 0, i32* %4, align 4
  br label %35

35:                                               ; preds = %46, %34
  %36 = load i32, i32* %4, align 4
  %37 = load i32, i32* %2, align 4
  %38 = icmp slt i32 %36, %37
  br i1 %38, label %39, label %49

39:                                               ; preds = %35
  %40 = load double*, double** %3, align 8
  %41 = load i32, i32* %4, align 4
  %42 = sext i32 %41 to i64
  %43 = getelementptr inbounds double, double* %40, i64 %42
  %44 = load double, double* %43, align 8
  %45 = call i32 (i8*, ...) @printf(i8* getelementptr inbounds ([7 x i8], [7 x i8]* @.str.2, i64 0, i64 0), double %44)
  br label %46

46:                                               ; preds = %39
  %47 = load i32, i32* %4, align 4
  %48 = add nsw i32 %47, 1
  store i32 %48, i32* %4, align 4
  br label %35

49:                                               ; preds = %35
  %50 = load double*, double** %3, align 8
  %51 = bitcast double* %50 to i8*
  call void @free(i8* %51) #3
  ret i32 0
}

declare dso_local i32 @__isoc99_scanf(i8*, ...) #1

; Function Attrs: nounwind
declare dso_local noalias i8* @malloc(i64) #2

declare dso_local i32 @printf(i8*, ...) #1

; Function Attrs: nounwind
declare dso_local void @free(i8*) #2


!llvm.module.flags = !{!0}
!llvm.ident = !{!1}

!0 = !{i32 1, !"wchar_size", i32 4}
!1 = !{!"clang version 10.0.0-4ubuntu1 "}
